target datalayout = "e-m:e-p270:32:32-p271:32:32-p272:64:64-i64:64-i128:128-f80:128-n8:16:32:64-S128"
target triple = "x86_64-pc-linux-gnu"

%struct.PREDICATELOCKTARGETTAG = type { i32, i32, i32, i32 }
%union.LWLockPadded = type { %struct.LWLock, [112 x i8] }
%struct.LWLock = type { i16, %struct.pg_atomic_uint32, %struct.proclist_head }
%struct.pg_atomic_uint32 = type { i32 }
%struct.proclist_head = type { i32, i32 }
%struct.dlist_head = type { %struct.dlist_node }
%struct.dlist_node = type { ptr, ptr }
%struct.SERIALIZABLEXACT = type { %struct.VirtualTransactionId, i64, i64, %union.anon, %struct.dlist_head, %struct.dlist_head, %struct.dlist_head, %struct.dlist_node, %struct.dlist_node, %struct.LWLock, %struct.dlist_head, i32, i32, i32, i32, i32, i32 }
%struct.VirtualTransactionId = type { i32, i32 }
%union.anon = type { i64 }
%struct.PREDICATELOCKTAG = type { ptr, ptr }
%struct.PREDICATELOCKTARGET = type { %struct.PREDICATELOCKTARGETTAG, %struct.dlist_head }
%struct.HASH_SEQ_STATUS = type { ptr, i32, ptr, i8, i32 }
%struct.PredicateLockData = type { i32, ptr, ptr }
%struct.PREDICATELOCK = type { %struct.PREDICATELOCKTAG, %struct.dlist_node, %struct.dlist_node, i64 }

@MainLWLockArray = external global ptr, align 8
@PredicateLockHash = internal global ptr null, align 8

; Function Attrs: nounwind uwtable
define dso_local ptr @GetPredicateLockStatusData() #0 {
  %1 = alloca ptr, align 8
  %2 = alloca i32, align 4
  %3 = alloca i32, align 4
  %4 = alloca i32, align 4
  %5 = alloca %struct.HASH_SEQ_STATUS, align 8
  %6 = alloca ptr, align 8
  call void @llvm.lifetime.start.p0(i64 8, ptr %1) #10
  call void @llvm.lifetime.start.p0(i64 4, ptr %2) #10
  call void @llvm.lifetime.start.p0(i64 4, ptr %3) #10
  call void @llvm.lifetime.start.p0(i64 4, ptr %4) #10
  call void @llvm.lifetime.start.p0(i64 32, ptr %5) #10
  call void @llvm.lifetime.start.p0(i64 8, ptr %6) #10
  %7 = call ptr @palloc(i64 noundef 24)
  store ptr %7, ptr %1, align 8
  store i32 0, ptr %2, align 4
  br label %8

8:                                                ; preds = %18, %0
  %9 = load i32, ptr %2, align 4
  %10 = icmp slt i32 %9, 16
  br i1 %10, label %11, label %21

11:                                               ; preds = %8
  %12 = load ptr, ptr @MainLWLockArray, align 8
  %13 = load i32, ptr %2, align 4
  %14 = add i32 197, %13
  %15 = sext i32 %14 to i64
  %16 = getelementptr inbounds %union.LWLockPadded, ptr %12, i64 %15
  %17 = call zeroext i1 @LWLockAcquire(ptr noundef %16, i32 noundef 1)
  br label %18

18:                                               ; preds = %11
  %19 = load i32, ptr %2, align 4
  %20 = add i32 %19, 1
  store i32 %20, ptr %2, align 4
  br label %8, !llvm.loop !9

21:                                               ; preds = %8
  %22 = load ptr, ptr @MainLWLockArray, align 8
  %23 = getelementptr inbounds %union.LWLockPadded, ptr %22, i64 28
  %24 = call zeroext i1 @LWLockAcquire(ptr noundef %23, i32 noundef 1)
  %25 = load ptr, ptr @PredicateLockHash, align 8
  %26 = call i64 @hash_get_num_entries(ptr noundef %25)
  %27 = trunc i64 %26 to i32
  store i32 %27, ptr %3, align 4
  %28 = load i32, ptr %3, align 4
  %29 = load ptr, ptr %1, align 8
  %30 = getelementptr inbounds nuw %struct.PredicateLockData, ptr %29, i32 0, i32 0
  store i32 %28, ptr %30, align 8
  %31 = load i32, ptr %3, align 4
  %32 = sext i32 %31 to i64
  %33 = mul i64 16, %32
  %34 = call ptr @palloc(i64 noundef %33)
  %35 = load ptr, ptr %1, align 8
  %36 = getelementptr inbounds nuw %struct.PredicateLockData, ptr %35, i32 0, i32 1
  store ptr %34, ptr %36, align 8
  %37 = load i32, ptr %3, align 4
  %38 = sext i32 %37 to i64
  %39 = mul i64 168, %38
  %40 = call ptr @palloc(i64 noundef %39)
  %41 = load ptr, ptr %1, align 8
  %42 = getelementptr inbounds nuw %struct.PredicateLockData, ptr %41, i32 0, i32 2
  store ptr %40, ptr %42, align 8
  %43 = load ptr, ptr @PredicateLockHash, align 8
  call void @hash_seq_init(ptr noundef %5, ptr noundef %43)
  store i32 0, ptr %4, align 4
  br label %44

44:                                               ; preds = %47, %21
  %45 = call ptr @hash_seq_search(ptr noundef %5)
  store ptr %45, ptr %6, align 8
  %46 = icmp ne ptr %45, null
  br i1 %46, label %47, label %71

47:                                               ; preds = %44
  %48 = load ptr, ptr %1, align 8
  %49 = getelementptr inbounds nuw %struct.PredicateLockData, ptr %48, i32 0, i32 1
  %50 = load ptr, ptr %49, align 8
  %51 = load i32, ptr %4, align 4
  %52 = sext i32 %51 to i64
  %53 = getelementptr inbounds %struct.PREDICATELOCKTARGETTAG, ptr %50, i64 %52
  %54 = load ptr, ptr %6, align 8
  %55 = getelementptr inbounds nuw %struct.PREDICATELOCK, ptr %54, i32 0, i32 0
  %56 = getelementptr inbounds nuw %struct.PREDICATELOCKTAG, ptr %55, i32 0, i32 0
  %57 = load ptr, ptr %56, align 8
  %58 = getelementptr inbounds nuw %struct.PREDICATELOCKTARGET, ptr %57, i32 0, i32 0
  call void @llvm.memcpy.p0.p0.i64(ptr align 4 %53, ptr align 8 %58, i64 16, i1 false)
  %59 = load ptr, ptr %1, align 8
  %60 = getelementptr inbounds nuw %struct.PredicateLockData, ptr %59, i32 0, i32 2
  %61 = load ptr, ptr %60, align 8
  %62 = load i32, ptr %4, align 4
  %63 = sext i32 %62 to i64
  %64 = getelementptr inbounds %struct.SERIALIZABLEXACT, ptr %61, i64 %63
  %65 = load ptr, ptr %6, align 8
  %66 = getelementptr inbounds nuw %struct.PREDICATELOCK, ptr %65, i32 0, i32 0
  %67 = getelementptr inbounds nuw %struct.PREDICATELOCKTAG, ptr %66, i32 0, i32 1
  %68 = load ptr, ptr %67, align 8
  call void @llvm.memcpy.p0.p0.i64(ptr align 8 %64, ptr align 8 %68, i64 168, i1 true)
  %69 = load i32, ptr %4, align 4
  %70 = add i32 %69, 1
  store i32 %70, ptr %4, align 4
  br label %44, !llvm.loop !10

71:                                               ; preds = %44
  %72 = load ptr, ptr @MainLWLockArray, align 8
  %73 = getelementptr inbounds %union.LWLockPadded, ptr %72, i64 28
  call void @LWLockRelease(ptr noundef %73)
  store i32 15, ptr %2, align 4
  br label %74

74:                                               ; preds = %83, %71
  %75 = load i32, ptr %2, align 4
  %76 = icmp sge i32 %75, 0
  br i1 %76, label %77, label %86

77:                                               ; preds = %74
  %78 = load ptr, ptr @MainLWLockArray, align 8
  %79 = load i32, ptr %2, align 4
  %80 = add i32 197, %79
  %81 = sext i32 %80 to i64
  %82 = getelementptr inbounds %union.LWLockPadded, ptr %78, i64 %81
  call void @LWLockRelease(ptr noundef %82)
  br label %83

83:                                               ; preds = %77
  %84 = load i32, ptr %2, align 4
  %85 = add i32 %84, -1
  store i32 %85, ptr %2, align 4
  br label %74, !llvm.loop !11

86:                                               ; preds = %74
  %87 = load ptr, ptr %1, align 8
  call void @llvm.lifetime.end.p0(i64 8, ptr %6) #10
  call void @llvm.lifetime.end.p0(i64 32, ptr %5) #10
  call void @llvm.lifetime.end.p0(i64 4, ptr %4) #10
  call void @llvm.lifetime.end.p0(i64 4, ptr %3) #10
  call void @llvm.lifetime.end.p0(i64 4, ptr %2) #10
  call void @llvm.lifetime.end.p0(i64 8, ptr %1) #10
  ret ptr %87
}