; Function Attrs: nounwind uwtable
define dso_local ptr @GetPredicateLockStatusData() local_unnamed_addr #0 {
  %1 = alloca %struct.HASH_SEQ_STATUS, align 8
  call void @llvm.lifetime.start.p0(i64 32, ptr nonnull %1) #12
  %2 = tail call ptr @palloc(i64 noundef 24) #12
  br label %3

3:                                                ; preds = %0, %3
  %indvars.iv = phi i64 [ 0, %0 ], [ %indvars.iv.next, %3 ]
  %4 = load ptr, ptr @MainLWLockArray, align 8
  %5 = getelementptr inbounds nuw %union.LWLockPadded, ptr %4, i64 %indvars.iv
  %6 = getelementptr inbounds nuw i8, ptr %5, i64 25216
  %7 = tail call zeroext i1 @LWLockAcquire(ptr noundef nonnull %6, i32 noundef 1) #12
  %indvars.iv.next = add nuw nsw i64 %indvars.iv, 1
  %exitcond.not = icmp eq i64 %indvars.iv.next, 16
  br i1 %exitcond.not, label %8, label %3, !llvm.loop !9

8:                                                ; preds = %3
  %9 = load ptr, ptr @MainLWLockArray, align 8
  %10 = getelementptr inbounds nuw i8, ptr %9, i64 3584
  %11 = tail call zeroext i1 @LWLockAcquire(ptr noundef nonnull %10, i32 noundef 1) #12
  %12 = load ptr, ptr @PredicateLockHash, align 8
  %13 = tail call i64 @hash_get_num_entries(ptr noundef %12) #12
  %14 = trunc i64 %13 to i32
  store i32 %14, ptr %2, align 8
  %sext = shl i64 %13, 32
  %15 = ashr exact i64 %sext, 32
  %16 = ashr exact i64 %sext, 28
  %17 = tail call ptr @palloc(i64 noundef %16) #12
  %18 = getelementptr inbounds nuw i8, ptr %2, i64 8
  store ptr %17, ptr %18, align 8
  %19 = mul nsw i64 %15, 168
  %20 = tail call ptr @palloc(i64 noundef %19) #12
  %21 = getelementptr inbounds nuw i8, ptr %2, i64 16
  store ptr %20, ptr %21, align 8
  %22 = load ptr, ptr @PredicateLockHash, align 8
  call void @hash_seq_init(ptr noundef nonnull %1, ptr noundef %22) #12
  %23 = call ptr @hash_seq_search(ptr noundef nonnull %1) #12
  %.not22 = icmp eq ptr %23, null
  br i1 %.not22, label %._crit_edge, label %.lr.ph

.lr.ph:                                           ; preds = %8, %.lr.ph
  %24 = phi ptr [ %34, %.lr.ph ], [ %23, %8 ]
  %.01923 = phi i32 [ %33, %.lr.ph ], [ 0, %8 ]
  %25 = load ptr, ptr %18, align 8
  %26 = sext i32 %.01923 to i64
  %27 = getelementptr inbounds %struct.PREDICATELOCKTARGETTAG, ptr %25, i64 %26
  %28 = load ptr, ptr %24, align 8
  call void @llvm.memcpy.p0.p0.i64(ptr noundef nonnull align 4 dereferenceable(16) %27, ptr noundef nonnull align 8 dereferenceable(16) %28, i64 16, i1 false)
  %29 = load ptr, ptr %21, align 8
  %30 = getelementptr inbounds %struct.SERIALIZABLEXACT, ptr %29, i64 %26
  %31 = getelementptr inbounds nuw i8, ptr %24, i64 8
  %32 = load ptr, ptr %31, align 8
  call void @llvm.memcpy.p0.p0.i64(ptr align 8 %30, ptr align 8 %32, i64 168, i1 true)
  %33 = add i32 %.01923, 1
  %34 = call ptr @hash_seq_search(ptr noundef nonnull %1) #12
  %.not = icmp eq ptr %34, null
  br i1 %.not, label %._crit_edge, label %.lr.ph, !llvm.loop !10

._crit_edge:                                      ; preds = %.lr.ph, %8
  %35 = load ptr, ptr @MainLWLockArray, align 8
  %36 = getelementptr inbounds nuw i8, ptr %35, i64 3584
  call void @LWLockRelease(ptr noundef nonnull %36) #12
  br label %37

37:                                               ; preds = %._crit_edge, %37
  %indvars.iv26 = phi i64 [ 15, %._crit_edge ], [ %indvars.iv.next27, %37 ]
  %38 = load ptr, ptr @MainLWLockArray, align 8
  %39 = getelementptr %union.LWLockPadded, ptr %38, i64 %indvars.iv26
  %40 = getelementptr i8, ptr %39, i64 25216
  call void @LWLockRelease(ptr noundef nonnull %40) #12
  %indvars.iv.next27 = add nsw i64 %indvars.iv26, -1
  %.not29 = icmp eq i64 %indvars.iv26, 0
  br i1 %.not29, label %41, label %37, !llvm.loop !11

41:                                               ; preds = %37
  call void @llvm.lifetime.end.p0(i64 32, ptr nonnull %1) #12
  ret ptr %2
}